target datalayout = "e-m:e-p270:32:32-p271:32:32-p272:64:64-i64:64-i128:128-f80:128-n8:16:32:64-S128"
target triple = "x86_64-pc-linux-gnu"

%class.ProtoTreeModel = type { %class.QAbstractItemModel, ptr }
%class.QAbstractItemModel = type { %class.QObject }
%class.QObject = type { ptr, %class.QScopedPointer }
%class.QScopedPointer = type { ptr }
%class.QModelIndex = type { i32, i32, i64, ptr }
%struct.find_field_info_ = type { ptr, ptr }

; Function Attrs: mustprogress nounwind uwtable
define linkonce_odr void @_ZN11QModelIndexC2EiiPKvPK18QAbstractItemModel(ptr noundef nonnull align 8 dereferenceable(24) %0, i32 noundef %1, i32 noundef %2, ptr noundef %3, ptr noundef %4) unnamed_addr #5 comdat align 2 {
  %6 = alloca ptr, align 8
  %7 = alloca i32, align 4
  %8 = alloca i32, align 4
  %9 = alloca ptr, align 8
  %10 = alloca ptr, align 8
  store ptr %0, ptr %6, align 8
  store i32 %1, ptr %7, align 4
  store i32 %2, ptr %8, align 4
  store ptr %3, ptr %9, align 8
  store ptr %4, ptr %10, align 8
  %11 = load ptr, ptr %6, align 8
  %12 = getelementptr inbounds %class.QModelIndex, ptr %11, i32 0, i32 0
  %13 = load i32, ptr %7, align 4
  store i32 %13, ptr %12, align 8
  %14 = getelementptr inbounds %class.QModelIndex, ptr %11, i32 0, i32 1
  %15 = load i32, ptr %8, align 4
  store i32 %15, ptr %14, align 4
  %16 = getelementptr inbounds %class.QModelIndex, ptr %11, i32 0, i32 2
  %17 = load ptr, ptr %9, align 8
  %18 = ptrtoint ptr %17 to i64
  store i64 %18, ptr %16, align 8
  %19 = getelementptr inbounds %class.QModelIndex, ptr %11, i32 0, i32 3
  %20 = load ptr, ptr %10, align 8
  store ptr %20, ptr %19, align 8
  ret void
}

; Function Attrs: mustprogress nounwind uwtable
define linkonce_odr void @_ZNK18QAbstractItemModel11createIndexEiiPKv(ptr dead_on_unwind noalias writable sret(%class.QModelIndex) align 8 %0, ptr noundef nonnull align 8 dereferenceable(16) %1, i32 noundef %2, i32 noundef %3, ptr noundef %4) #5 comdat align 2 {
  %6 = alloca ptr, align 8
  %7 = alloca i32, align 4
  %8 = alloca i32, align 4
  %9 = alloca ptr, align 8
  store ptr %1, ptr %6, align 8
  store i32 %2, ptr %7, align 4
  store i32 %3, ptr %8, align 4
  store ptr %4, ptr %9, align 8
  %10 = load ptr, ptr %6, align 8
  %11 = load i32, ptr %7, align 4
  %12 = load i32, ptr %8, align 4
  %13 = load ptr, ptr %9, align 8
  call void @_ZN11QModelIndexC2EiiPKvPK18QAbstractItemModel(ptr noundef nonnull align 8 dereferenceable(24) %0, i32 noundef %11, i32 noundef %12, ptr noundef %13, ptr noundef %10) #9
  ret void
}

; Function Attrs: mustprogress uwtable
define void @_ZNK14ProtoTreeModel18indexFromProtoNodeEP9ProtoNode(ptr dead_on_unwind noalias writable sret(%class.QModelIndex) align 8 %0, ptr noundef nonnull align 8 dereferenceable(24) %1, ptr noundef %2) #0 align 2 {
  %4 = alloca ptr, align 8
  %5 = alloca ptr, align 8
  %6 = alloca i32, align 4
  store ptr %1, ptr %4, align 8
  store ptr %2, ptr %5, align 8
  %7 = load ptr, ptr %4, align 8
  %8 = load ptr, ptr %5, align 8
  %9 = icmp ne ptr %8, null
  br i1 %9, label %11, label %10

10:                                               ; preds = %3
  call void @_ZN11QModelIndexC2Ev(ptr noundef nonnull align 8 dereferenceable(24) %0) #9
  br label %23

11:                                               ; preds = %3
  %12 = load ptr, ptr %5, align 8
  %13 = call noundef i32 @_ZN9ProtoNode3rowEv(ptr noundef nonnull align 8 dereferenceable(40) %12)
  store i32 %13, ptr %6, align 4
  %14 = load ptr, ptr %5, align 8
  %15 = call noundef zeroext i1 @_ZNK9ProtoNode7isValidEv(ptr noundef nonnull align 8 dereferenceable(40) %14)
  br i1 %15, label %16, label %19

16:                                               ; preds = %11
  %17 = load i32, ptr %6, align 4
  %18 = icmp slt i32 %17, 0
  br i1 %18, label %19, label %20

19:                                               ; preds = %16, %11
  call void @_ZN11QModelIndexC2Ev(ptr noundef nonnull align 8 dereferenceable(24) %0) #9
  br label %23

20:                                               ; preds = %16
  %21 = load i32, ptr %6, align 4
  %22 = load ptr, ptr %5, align 8
  call void @_ZNK18QAbstractItemModel11createIndexEiiPKv(ptr dead_on_unwind writable sret(%class.QModelIndex) align 8 %0, ptr noundef nonnull align 8 dereferenceable(16) %7, i32 noundef %21, i32 noundef 0, ptr noundef %22)
  br label %23

23:                                               ; preds = %20, %19, %10
  ret void
}

; Function Attrs: mustprogress nounwind uwtable
define linkonce_odr void @_ZN11QModelIndexC2Ev(ptr noundef nonnull align 8 dereferenceable(24) %0) unnamed_addr #5 comdat align 2 {
  %2 = alloca ptr, align 8
  store ptr %0, ptr %2, align 8
  %3 = load ptr, ptr %2, align 8
  %4 = getelementptr inbounds %class.QModelIndex, ptr %3, i32 0, i32 0
  store i32 -1, ptr %4, align 8
  %5 = getelementptr inbounds %class.QModelIndex, ptr %3, i32 0, i32 1
  store i32 -1, ptr %5, align 4
  %6 = getelementptr inbounds %class.QModelIndex, ptr %3, i32 0, i32 2
  store i64 0, ptr %6, align 8
  %7 = getelementptr inbounds %class.QModelIndex, ptr %3, i32 0, i32 3
  store ptr null, ptr %7, align 8
  ret void
}

; Function Attrs: mustprogress uwtable
define void @_ZN14ProtoTreeModel20findFieldInformationEP16FieldInformation(ptr dead_on_unwind noalias writable sret(%class.QModelIndex) align 8 %0, ptr noundef nonnull align 8 dereferenceable(24) %1, ptr noundef %2) #0 align 2 {
  %4 = alloca ptr, align 8
  %5 = alloca ptr, align 8
  %6 = alloca ptr, align 8
  %7 = alloca %struct.find_field_info_, align 8
  store ptr %1, ptr %4, align 8
  store ptr %2, ptr %5, align 8
  %8 = load ptr, ptr %4, align 8
  %9 = getelementptr inbounds %class.ProtoTreeModel, ptr %8, i32 0, i32 1
  %10 = load ptr, ptr %9, align 8
  %11 = icmp ne ptr %10, null
  br i1 %11, label %12, label %15

12:                                               ; preds = %3
  %13 = load ptr, ptr %5, align 8
  %14 = icmp ne ptr %13, null
  br i1 %14, label %16, label %15

15:                                               ; preds = %12, %3
  call void @_ZN11QModelIndexC2Ev(ptr noundef nonnull align 8 dereferenceable(24) %0) #9
  br label %36

16:                                               ; preds = %12
  %17 = load ptr, ptr %5, align 8
  %18 = call noundef ptr @_ZNK16FieldInformation9fieldInfoEv(ptr noundef nonnull align 8 dereferenceable(40) %17)
  store ptr %18, ptr %6, align 8
  %19 = load ptr, ptr %6, align 8
  %20 = icmp ne ptr %19, null
  br i1 %20, label %22, label %21

21:                                               ; preds = %16
  call void @_ZN11QModelIndexC2Ev(ptr noundef nonnull align 8 dereferenceable(24) %0) #9
  br label %36

22:                                               ; preds = %16
  %23 = load ptr, ptr %6, align 8
  %24 = getelementptr inbounds %struct.find_field_info_, ptr %7, i32 0, i32 0
  store ptr %23, ptr %24, align 8
  %25 = getelementptr inbounds %class.ProtoTreeModel, ptr %8, i32 0, i32 1
  %26 = load ptr, ptr %25, align 8
  %27 = call noundef zeroext i1 @_ZN14ProtoTreeModel16foreachFindFieldEP9ProtoNodePv(ptr noundef %26, ptr noundef %7)
  br i1 %27, label %28, label %35

28:                                               ; preds = %22
  %29 = getelementptr inbounds %struct.find_field_info_, ptr %7, i32 0, i32 1
  %30 = load ptr, ptr %29, align 8
  %31 = call noundef zeroext i1 @_ZNK9ProtoNode7isValidEv(ptr noundef nonnull align 8 dereferenceable(40) %30)
  br i1 %31, label %32, label %35

32:                                               ; preds = %28
  %33 = getelementptr inbounds %struct.find_field_info_, ptr %7, i32 0, i32 1
  %34 = load ptr, ptr %33, align 8
  call void @_ZNK14ProtoTreeModel18indexFromProtoNodeEP9ProtoNode(ptr dead_on_unwind writable sret(%class.QModelIndex) align 8 %0, ptr noundef nonnull align 8 dereferenceable(24) %8, ptr noundef %34)
  br label %36

35:                                               ; preds = %28, %22
  call void @_ZN11QModelIndexC2Ev(ptr noundef nonnull align 8 dereferenceable(24) %0) #9
  br label %36

36:                                               ; preds = %35, %32, %21, %15
  ret void
}