; Function Attrs: mustprogress uwtable
define void @_ZN14ProtoTreeModel20findFieldInformationEP16FieldInformation(ptr dead_on_unwind noalias nocapture writable writeonly sret(%class.QModelIndex) align 8 %0, ptr noundef nonnull align 8 dereferenceable(24) %1, ptr noundef %2) local_unnamed_addr #0 align 2 {
  %4 = alloca %struct.find_field_info_, align 8
  %5 = getelementptr inbounds i8, ptr %1, i64 16
  %6 = load ptr, ptr %5, align 8
  %7 = icmp ne ptr %6, null
  %8 = icmp ne ptr %2, null
  %or.cond = and i1 %8, %7
  br i1 %or.cond, label %12, label %9

9:                                                ; preds = %3
  store i32 -1, ptr %0, align 8
  %10 = getelementptr inbounds i8, ptr %0, i64 4
  store i32 -1, ptr %10, align 4
  %11 = getelementptr inbounds i8, ptr %0, i64 8
  tail call void @llvm.memset.p0.i64(ptr noundef nonnull align 8 dereferenceable(16) %11, i8 0, i64 16, i1 false)
  br label %_ZNK14ProtoTreeModel18indexFromProtoNodeEP9ProtoNode.exit

12:                                               ; preds = %3
  %13 = tail call noundef ptr @_ZNK16FieldInformation9fieldInfoEv(ptr noundef nonnull align 8 dereferenceable(40) %2)
  %.not = icmp eq ptr %13, null
  br i1 %.not, label %14, label %17

14:                                               ; preds = %12
  store i32 -1, ptr %0, align 8
  %15 = getelementptr inbounds i8, ptr %0, i64 4
  store i32 -1, ptr %15, align 4
  %16 = getelementptr inbounds i8, ptr %0, i64 8
  tail call void @llvm.memset.p0.i64(ptr noundef nonnull align 8 dereferenceable(16) %16, i8 0, i64 16, i1 false)
  br label %_ZNK14ProtoTreeModel18indexFromProtoNodeEP9ProtoNode.exit

17:                                               ; preds = %12
  store ptr %13, ptr %4, align 8
  %18 = load ptr, ptr %5, align 8
  %19 = call noundef zeroext i1 @_ZN14ProtoTreeModel16foreachFindFieldEP9ProtoNodePv(ptr noundef %18, ptr noundef nonnull %4)
  br i1 %19, label %20, label %34

20:                                               ; preds = %17
  %21 = getelementptr inbounds i8, ptr %4, i64 8
  %22 = load ptr, ptr %21, align 8
  %23 = tail call noundef zeroext i1 @_ZNK9ProtoNode7isValidEv(ptr noundef nonnull align 8 dereferenceable(40) %22)
  br i1 %23, label %24, label %34

24:                                               ; preds = %20
  tail call void @llvm.experimental.noalias.scope.decl(metadata !25)
  %25 = tail call noundef i32 @_ZN9ProtoNode3rowEv(ptr noundef nonnull align 8 dereferenceable(40) %22), !noalias !25
  %26 = tail call noundef zeroext i1 @_ZNK9ProtoNode7isValidEv(ptr noundef nonnull align 8 dereferenceable(40) %22), !noalias !25
  %27 = icmp sgt i32 %25, -1
  %or.cond.not.i = and i1 %27, %26
  %28 = getelementptr inbounds i8, ptr %0, i64 4
  %29 = getelementptr inbounds i8, ptr %0, i64 8
  br i1 %or.cond.not.i, label %31, label %30

30:                                               ; preds = %24
  store i32 -1, ptr %0, align 8, !alias.scope !25
  store i32 -1, ptr %28, align 4, !alias.scope !25
  tail call void @llvm.memset.p0.i64(ptr noundef nonnull align 8 dereferenceable(16) %29, i8 0, i64 16, i1 false), !alias.scope !25
  br label %_ZNK14ProtoTreeModel18indexFromProtoNodeEP9ProtoNode.exit

31:                                               ; preds = %24
  store i32 %25, ptr %0, align 8, !alias.scope !28
  store i32 0, ptr %28, align 4, !alias.scope !28
  %32 = ptrtoint ptr %22 to i64
  store i64 %32, ptr %29, align 8, !alias.scope !28
  %33 = getelementptr inbounds i8, ptr %0, i64 16
  store ptr %1, ptr %33, align 8, !alias.scope !28
  br label %_ZNK14ProtoTreeModel18indexFromProtoNodeEP9ProtoNode.exit

34:                                               ; preds = %20, %17
  store i32 -1, ptr %0, align 8
  %35 = getelementptr inbounds i8, ptr %0, i64 4
  store i32 -1, ptr %35, align 4
  %36 = getelementptr inbounds i8, ptr %0, i64 8
  tail call void @llvm.memset.p0.i64(ptr noundef nonnull align 8 dereferenceable(16) %36, i8 0, i64 16, i1 false)
  br label %_ZNK14ProtoTreeModel18indexFromProtoNodeEP9ProtoNode.exit

_ZNK14ProtoTreeModel18indexFromProtoNodeEP9ProtoNode.exit: ; preds = %31, %30, %34, %14, %9
  ret void
}